target datalayout = "e-m:e-p270:32:32-p271:32:32-p272:64:64-i64:64-i128:128-f80:128-n8:16:32:64-S128"
target triple = "x86_64-pc-linux-gnu"

%"class.gmx::StatePropagatorData" = type { i32, i32, %"class.gmx::PaddedVector", %"class.gmx::PaddedVector", %"class.gmx::PaddedVector", %"class.gmx::ForceBuffers", [3 x [3 x float]], [3 x [3 x float]], i32, i32, %"class.std::vector.39", %"class.gmx::PaddedVector", %"class.gmx::PaddedVector", %"class.gmx::PaddedVector", %"class.gmx::PaddedVector", %"class.std::unique_ptr", %"class.std::unique_ptr.43", i8, %"class.gmx::PaddedVector", i8, i64, ptr, ptr }
%"class.gmx::ForceBuffers" = type <{ %"class.gmx::PaddedVector", %"class.gmx::PaddedVector", %"class.gmx::ForceBuffersView", i8, [7 x i8] }>
%"class.gmx::ForceBuffersView" = type <{ %"class.gmx::ArrayRefWithPadding", %"class.gmx::ArrayRefWithPadding", i8, [7 x i8] }>
%"class.gmx::ArrayRefWithPadding" = type { ptr, ptr, ptr }
%"class.std::vector.39" = type { %"struct.std::_Vector_base.40" }
%"struct.std::_Vector_base.40" = type { %"struct.std::_Vector_base<int, std::allocator<int>>::_Vector_impl" }
%"struct.std::_Vector_base<int, std::allocator<int>>::_Vector_impl" = type { %"struct.std::_Vector_base<int, std::allocator<int>>::_Vector_impl_data" }
%"struct.std::_Vector_base<int, std::allocator<int>>::_Vector_impl_data" = type { ptr, ptr, ptr }
%"class.std::unique_ptr" = type { %"struct.std::__uniq_ptr_data" }
%"struct.std::__uniq_ptr_data" = type { %"class.std::__uniq_ptr_impl" }
%"class.std::__uniq_ptr_impl" = type { %"class.std::tuple" }
%"class.std::tuple" = type { %"struct.std::_Tuple_impl" }
%"struct.std::_Tuple_impl" = type { %"struct.std::_Head_base.42" }
%"struct.std::_Head_base.42" = type { ptr }
%"class.std::unique_ptr.43" = type { %"struct.std::__uniq_ptr_data.44" }
%"struct.std::__uniq_ptr_data.44" = type { %"class.std::__uniq_ptr_impl.45" }
%"class.std::__uniq_ptr_impl.45" = type { %"class.std::tuple.46" }
%"class.std::tuple.46" = type { %"struct.std::_Tuple_impl.47" }
%"struct.std::_Tuple_impl.47" = type { %"struct.std::_Head_base.50" }
%"struct.std::_Head_base.50" = type { ptr }
%"class.gmx::PaddedVector" = type { %"class.std::vector", %"class.__gnu_cxx::__normal_iterator" }
%"class.std::vector" = type { %"struct.std::_Vector_base" }
%"struct.std::_Vector_base" = type { %"struct.std::_Vector_base<gmx::BasicVector<float>, gmx::Allocator<gmx::BasicVector<float>, gmx::HostAllocationPolicy>>::_Vector_impl" }
%"struct.std::_Vector_base<gmx::BasicVector<float>, gmx::Allocator<gmx::BasicVector<float>, gmx::HostAllocationPolicy>>::_Vector_impl" = type { %"class.gmx::Allocator", %"struct.std::_Vector_base<gmx::BasicVector<float>, gmx::Allocator<gmx::BasicVector<float>, gmx::HostAllocationPolicy>>::_Vector_impl_data" }
%"class.gmx::Allocator" = type { %"class.gmx::HostAllocationPolicy" }
%"class.gmx::HostAllocationPolicy" = type { i32 }
%"struct.std::_Vector_base<gmx::BasicVector<float>, gmx::Allocator<gmx::BasicVector<float>, gmx::HostAllocationPolicy>>::_Vector_impl_data" = type { ptr, ptr, ptr }
%"class.__gnu_cxx::__normal_iterator" = type { ptr }
%"class.gmx::ArrayRef.252" = type { %"struct.gmx::ArrayRefIter.253", %"struct.gmx::ArrayRefIter.253" }
%"struct.gmx::ArrayRefIter.253" = type { ptr }
%"class.gmx::CheckpointData.13" = type { ptr }
%"class.gmx::BasicVector" = type { [3 x float] }
%"class.__gnu_cxx::__normal_iterator.225" = type { ptr }
%struct.t_trxframe = type { i32, i8, i32, i8, i64, i8, float, i8, i8, float, i32, i8, ptr, i8, float, i8, ptr, i8, ptr, i8, ptr, i8, [3 x [3 x float]], i8, i32, i8, ptr }

@_ZN3gmx19StatePropagatorDataD1Ev = unnamed_addr alias void (ptr), ptr @_ZN3gmx19StatePropagatorDataD2Ev

; Function Attrs: mustprogress nounwind uwtable
define linkonce_odr void @_ZN9__gnu_cxx17__normal_iteratorIPKN3gmx11BasicVectorIfEESt6vectorIS3_NS1_9AllocatorIS3_NS1_20HostAllocationPolicyEEEEEC2ERKS5_(ptr noundef nonnull align 8 dereferenceable(8) %0, ptr noundef nonnull align 8 dereferenceable(8) %1) unnamed_addr #1 comdat align 2 {
  %3 = alloca ptr, align 8
  %4 = alloca ptr, align 8
  store ptr %0, ptr %3, align 8
  store ptr %1, ptr %4, align 8
  %5 = load ptr, ptr %3, align 8
  %6 = getelementptr inbounds %"class.__gnu_cxx::__normal_iterator.225", ptr %5, i32 0, i32 0
  %7 = load ptr, ptr %4, align 8
  %8 = load ptr, ptr %7, align 8
  store ptr %8, ptr %6, align 8
  ret void
}

; Function Attrs: mustprogress nounwind uwtable
define linkonce_odr noundef nonnull align 8 dereferenceable(8) ptr @_ZNK9__gnu_cxx17__normal_iteratorIPN3gmx11BasicVectorIfEESt6vectorIS3_NS1_9AllocatorIS3_NS1_20HostAllocationPolicyEEEEE4baseEv(ptr noundef nonnull align 8 dereferenceable(8) %0) #1 comdat align 2 {
  %2 = alloca ptr, align 8
  store ptr %0, ptr %2, align 8
  %3 = load ptr, ptr %2, align 8
  %4 = getelementptr inbounds %"class.__gnu_cxx::__normal_iterator", ptr %3, i32 0, i32 0
  ret ptr %4
}

; Function Attrs: mustprogress nounwind uwtable
define linkonce_odr noundef nonnull align 8 dereferenceable(8) ptr @_ZNK9__gnu_cxx17__normal_iteratorIPKN3gmx11BasicVectorIfEESt6vectorIS3_NS1_9AllocatorIS3_NS1_20HostAllocationPolicyEEEEE4baseEv(ptr noundef nonnull align 8 dereferenceable(8) %0) #1 comdat align 2 {
  %2 = alloca ptr, align 8
  store ptr %0, ptr %2, align 8
  %3 = load ptr, ptr %2, align 8
  %4 = getelementptr inbounds %"class.__gnu_cxx::__normal_iterator.225", ptr %3, i32 0, i32 0
  ret ptr %4
}

; Function Attrs: mustprogress nounwind uwtable
define linkonce_odr ptr @_ZNKSt6vectorIN3gmx11BasicVectorIfEENS0_9AllocatorIS2_NS0_20HostAllocationPolicyEEEE5beginEv(ptr noundef nonnull align 8 dereferenceable(32) %0) #1 comdat align 2 {
  %2 = alloca %"class.__gnu_cxx::__normal_iterator.225", align 8
  %3 = alloca ptr, align 8
  store ptr %0, ptr %3, align 8
  %4 = load ptr, ptr %3, align 8
  %5 = getelementptr inbounds %"struct.std::_Vector_base", ptr %4, i32 0, i32 0
  %6 = getelementptr inbounds i8, ptr %5, i64 8
  %7 = getelementptr inbounds %"struct.std::_Vector_base<gmx::BasicVector<float>, gmx::Allocator<gmx::BasicVector<float>, gmx::HostAllocationPolicy>>::_Vector_impl_data", ptr %6, i32 0, i32 0
  call void @_ZN9__gnu_cxx17__normal_iteratorIPKN3gmx11BasicVectorIfEESt6vectorIS3_NS1_9AllocatorIS3_NS1_20HostAllocationPolicyEEEEEC2ERKS5_(ptr noundef nonnull align 8 dereferenceable(8) %2, ptr noundef nonnull align 8 dereferenceable(8) %7) #14
  %8 = getelementptr inbounds %"class.__gnu_cxx::__normal_iterator.225", ptr %2, i32 0, i32 0
  %9 = load ptr, ptr %8, align 8
  ret ptr %9
}

; Function Attrs: mustprogress nounwind uwtable
define linkonce_odr void @_ZN9__gnu_cxx17__normal_iteratorIPKN3gmx11BasicVectorIfEESt6vectorIS3_NS1_9AllocatorIS3_NS1_20HostAllocationPolicyEEEEEC2IPS3_vEERKNS0_IT_SA_EE(ptr noundef nonnull align 8 dereferenceable(8) %0, ptr noundef nonnull align 8 dereferenceable(8) %1) unnamed_addr #1 comdat align 2 {
  %3 = alloca ptr, align 8
  %4 = alloca ptr, align 8
  store ptr %0, ptr %3, align 8
  store ptr %1, ptr %4, align 8
  %5 = load ptr, ptr %3, align 8
  %6 = getelementptr inbounds %"class.__gnu_cxx::__normal_iterator.225", ptr %5, i32 0, i32 0
  %7 = load ptr, ptr %4, align 8
  %8 = call noundef nonnull align 8 dereferenceable(8) ptr @_ZNK9__gnu_cxx17__normal_iteratorIPN3gmx11BasicVectorIfEESt6vectorIS3_NS1_9AllocatorIS3_NS1_20HostAllocationPolicyEEEEE4baseEv(ptr noundef nonnull align 8 dereferenceable(8) %7) #14
  %9 = load ptr, ptr %8, align 8
  store ptr %9, ptr %6, align 8
  ret void
}

; Function Attrs: mustprogress nounwind uwtable
define linkonce_odr noundef ptr @_ZNKSt6vectorIN3gmx11BasicVectorIfEENS0_9AllocatorIS2_NS0_20HostAllocationPolicyEEEE11_M_data_ptrIS2_EEPT_S9_(ptr noundef nonnull align 8 dereferenceable(32) %0, ptr noundef %1) #1 comdat align 2 {
  %3 = alloca ptr, align 8
  %4 = alloca ptr, align 8
  store ptr %0, ptr %3, align 8
  store ptr %1, ptr %4, align 8
  %5 = load ptr, ptr %4, align 8
  ret ptr %5
}

; Function Attrs: mustprogress nounwind uwtable
define linkonce_odr noundef i64 @_ZN9__gnu_cxxmiIPKN3gmx11BasicVectorIfEESt6vectorIS3_NS1_9AllocatorIS3_NS1_20HostAllocationPolicyEEEEEENS_17__normal_iteratorIT_T0_E15difference_typeERKSE_SH_(ptr noundef nonnull align 8 dereferenceable(8) %0, ptr noundef nonnull align 8 dereferenceable(8) %1) #1 comdat {
  %3 = alloca ptr, align 8
  %4 = alloca ptr, align 8
  store ptr %0, ptr %3, align 8
  store ptr %1, ptr %4, align 8
  %5 = load ptr, ptr %3, align 8
  %6 = call noundef nonnull align 8 dereferenceable(8) ptr @_ZNK9__gnu_cxx17__normal_iteratorIPKN3gmx11BasicVectorIfEESt6vectorIS3_NS1_9AllocatorIS3_NS1_20HostAllocationPolicyEEEEE4baseEv(ptr noundef nonnull align 8 dereferenceable(8) %5) #14
  %7 = load ptr, ptr %6, align 8
  %8 = load ptr, ptr %4, align 8
  %9 = call noundef nonnull align 8 dereferenceable(8) ptr @_ZNK9__gnu_cxx17__normal_iteratorIPKN3gmx11BasicVectorIfEESt6vectorIS3_NS1_9AllocatorIS3_NS1_20HostAllocationPolicyEEEEE4baseEv(ptr noundef nonnull align 8 dereferenceable(8) %8) #14
  %10 = load ptr, ptr %9, align 8
  %11 = ptrtoint ptr %7 to i64
  %12 = ptrtoint ptr %10 to i64
  %13 = sub i64 %11, %12
  %14 = sdiv exact i64 %13, 12
  ret i64 %14
}

; Function Attrs: mustprogress nounwind uwtable
define linkonce_odr ptr @_ZNK3gmx12PaddedVectorINS_11BasicVectorIfEENS_9AllocatorIS2_NS_20HostAllocationPolicyEEEE5beginEv(ptr noundef nonnull align 8 dereferenceable(40) %0) #1 comdat align 2 {
  %2 = alloca %"class.__gnu_cxx::__normal_iterator.225", align 8
  %3 = alloca ptr, align 8
  store ptr %0, ptr %3, align 8
  %4 = load ptr, ptr %3, align 8
  %5 = getelementptr inbounds %"class.gmx::PaddedVector", ptr %4, i32 0, i32 0
  %6 = call ptr @_ZNKSt6vectorIN3gmx11BasicVectorIfEENS0_9AllocatorIS2_NS0_20HostAllocationPolicyEEEE5beginEv(ptr noundef nonnull align 8 dereferenceable(32) %5) #14
  %7 = getelementptr inbounds %"class.__gnu_cxx::__normal_iterator.225", ptr %2, i32 0, i32 0
  store ptr %6, ptr %7, align 8
  %8 = getelementptr inbounds %"class.__gnu_cxx::__normal_iterator.225", ptr %2, i32 0, i32 0
  %9 = load ptr, ptr %8, align 8
  ret ptr %9
}

; Function Attrs: mustprogress nounwind uwtable
define linkonce_odr ptr @_ZNK3gmx12PaddedVectorINS_11BasicVectorIfEENS_9AllocatorIS2_NS_20HostAllocationPolicyEEEE3endEv(ptr noundef nonnull align 8 dereferenceable(40) %0) #1 comdat align 2 {
  %2 = alloca %"class.__gnu_cxx::__normal_iterator.225", align 8
  %3 = alloca ptr, align 8
  store ptr %0, ptr %3, align 8
  %4 = load ptr, ptr %3, align 8
  %5 = getelementptr inbounds %"class.gmx::PaddedVector", ptr %4, i32 0, i32 1
  call void @_ZN9__gnu_cxx17__normal_iteratorIPKN3gmx11BasicVectorIfEESt6vectorIS3_NS1_9AllocatorIS3_NS1_20HostAllocationPolicyEEEEEC2IPS3_vEERKNS0_IT_SA_EE(ptr noundef nonnull align 8 dereferenceable(8) %2, ptr noundef nonnull align 8 dereferenceable(8) %5) #14
  %6 = getelementptr inbounds %"class.__gnu_cxx::__normal_iterator.225", ptr %2, i32 0, i32 0
  %7 = load ptr, ptr %6, align 8
  ret ptr %7
}

; Function Attrs: mustprogress nounwind uwtable
define linkonce_odr noundef ptr @_ZNSt6vectorIN3gmx11BasicVectorIfEENS0_9AllocatorIS2_NS0_20HostAllocationPolicyEEEE4dataEv(ptr noundef nonnull align 8 dereferenceable(32) %0) #1 comdat align 2 {
  %2 = alloca ptr, align 8
  store ptr %0, ptr %2, align 8
  %3 = load ptr, ptr %2, align 8
  %4 = getelementptr inbounds %"struct.std::_Vector_base", ptr %3, i32 0, i32 0
  %5 = getelementptr inbounds i8, ptr %4, i64 8
  %6 = getelementptr inbounds %"struct.std::_Vector_base<gmx::BasicVector<float>, gmx::Allocator<gmx::BasicVector<float>, gmx::HostAllocationPolicy>>::_Vector_impl_data", ptr %5, i32 0, i32 0
  %7 = load ptr, ptr %6, align 8
  %8 = call noundef ptr @_ZNKSt6vectorIN3gmx11BasicVectorIfEENS0_9AllocatorIS2_NS0_20HostAllocationPolicyEEEE11_M_data_ptrIS2_EEPT_S9_(ptr noundef nonnull align 8 dereferenceable(32) %3, ptr noundef %7) #14
  ret ptr %8
}

; Function Attrs: mustprogress nounwind uwtable
define internal void @_ZL9copy_rvecPKfPf(ptr noundef %0, ptr noundef %1) #1 {
  %3 = alloca ptr, align 8
  %4 = alloca ptr, align 8
  store ptr %0, ptr %3, align 8
  store ptr %1, ptr %4, align 8
  %5 = load ptr, ptr %3, align 8
  %6 = getelementptr inbounds float, ptr %5, i64 0
  %7 = load float, ptr %6, align 4
  %8 = load ptr, ptr %4, align 8
  %9 = getelementptr inbounds float, ptr %8, i64 0
  store float %7, ptr %9, align 4
  %10 = load ptr, ptr %3, align 8
  %11 = getelementptr inbounds float, ptr %10, i64 1
  %12 = load float, ptr %11, align 4
  %13 = load ptr, ptr %4, align 8
  %14 = getelementptr inbounds float, ptr %13, i64 1
  store float %12, ptr %14, align 4
  %15 = load ptr, ptr %3, align 8
  %16 = getelementptr inbounds float, ptr %15, i64 2
  %17 = load float, ptr %16, align 4
  %18 = load ptr, ptr %4, align 8
  %19 = getelementptr inbounds float, ptr %18, i64 2
  store float %17, ptr %19, align 4
  ret void
}

; Function Attrs: mustprogress uwtable
define linkonce_odr noundef i64 @_ZNK3gmx12PaddedVectorINS_11BasicVectorIfEENS_9AllocatorIS2_NS_20HostAllocationPolicyEEEE4sizeEv(ptr noundef nonnull align 8 dereferenceable(40) %0) #0 comdat align 2 {
  %2 = alloca ptr, align 8
  %3 = alloca %"class.__gnu_cxx::__normal_iterator.225", align 8
  %4 = alloca %"class.__gnu_cxx::__normal_iterator.225", align 8
  store ptr %0, ptr %2, align 8
  %5 = load ptr, ptr %2, align 8
  %6 = call ptr @_ZNK3gmx12PaddedVectorINS_11BasicVectorIfEENS_9AllocatorIS2_NS_20HostAllocationPolicyEEEE3endEv(ptr noundef nonnull align 8 dereferenceable(40) %5)
  %7 = getelementptr inbounds %"class.__gnu_cxx::__normal_iterator.225", ptr %3, i32 0, i32 0
  store ptr %6, ptr %7, align 8
  %8 = call ptr @_ZNK3gmx12PaddedVectorINS_11BasicVectorIfEENS_9AllocatorIS2_NS_20HostAllocationPolicyEEEE5beginEv(ptr noundef nonnull align 8 dereferenceable(40) %5)
  %9 = getelementptr inbounds %"class.__gnu_cxx::__normal_iterator.225", ptr %4, i32 0, i32 0
  store ptr %8, ptr %9, align 8
  %10 = call noundef i64 @_ZN9__gnu_cxxmiIPKN3gmx11BasicVectorIfEESt6vectorIS3_NS1_9AllocatorIS3_NS1_20HostAllocationPolicyEEEEEENS_17__normal_iteratorIT_T0_E15difference_typeERKSE_SH_(ptr noundef nonnull align 8 dereferenceable(8) %3, ptr noundef nonnull align 8 dereferenceable(8) %4) #14
  ret i64 %10
}

; Function Attrs: mustprogress nounwind uwtable
define linkonce_odr void @_ZN3gmx12ArrayRefIterIKNS_11BasicVectorIfEEEC2EPS3_(ptr noundef nonnull align 8 dereferenceable(8) %0, ptr noundef %1) unnamed_addr #1 comdat align 2 {
  %3 = alloca ptr, align 8
  %4 = alloca ptr, align 8
  store ptr %0, ptr %3, align 8
  store ptr %1, ptr %4, align 8
  %5 = load ptr, ptr %3, align 8
  %6 = getelementptr inbounds %"struct.gmx::ArrayRefIter.253", ptr %5, i32 0, i32 0
  %7 = load ptr, ptr %4, align 8
  store ptr %7, ptr %6, align 8
  ret void
}

; Function Attrs: mustprogress nounwind uwtable
define linkonce_odr noundef ptr @_ZN3gmx12PaddedVectorINS_11BasicVectorIfEENS_9AllocatorIS2_NS_20HostAllocationPolicyEEEE4dataEv(ptr noundef nonnull align 8 dereferenceable(40) %0) #1 comdat align 2 {
  %2 = alloca ptr, align 8
  store ptr %0, ptr %2, align 8
  %3 = load ptr, ptr %2, align 8
  %4 = getelementptr inbounds %"class.gmx::PaddedVector", ptr %3, i32 0, i32 0
  %5 = call noundef ptr @_ZNSt6vectorIN3gmx11BasicVectorIfEENS0_9AllocatorIS2_NS0_20HostAllocationPolicyEEEE4dataEv(ptr noundef nonnull align 8 dereferenceable(32) %4) #14
  ret ptr %5
}

; Function Attrs: mustprogress uwtable
define internal void @_ZL8copy_matPA3_KfPA3_f(ptr noundef %0, ptr noundef %1) #0 {
  %3 = alloca ptr, align 8
  %4 = alloca ptr, align 8
  store ptr %0, ptr %3, align 8
  store ptr %1, ptr %4, align 8
  %5 = load ptr, ptr %3, align 8
  %6 = getelementptr inbounds [3 x float], ptr %5, i64 0
  %7 = getelementptr inbounds [3 x float], ptr %6, i64 0, i64 0
  %8 = load ptr, ptr %4, align 8
  %9 = getelementptr inbounds [3 x float], ptr %8, i64 0
  %10 = getelementptr inbounds [3 x float], ptr %9, i64 0, i64 0
  call void @_ZL9copy_rvecPKfPf(ptr noundef %7, ptr noundef %10)
  %11 = load ptr, ptr %3, align 8
  %12 = getelementptr inbounds [3 x float], ptr %11, i64 1
  %13 = getelementptr inbounds [3 x float], ptr %12, i64 0, i64 0
  %14 = load ptr, ptr %4, align 8
  %15 = getelementptr inbounds [3 x float], ptr %14, i64 1
  %16 = getelementptr inbounds [3 x float], ptr %15, i64 0, i64 0
  call void @_ZL9copy_rvecPKfPf(ptr noundef %13, ptr noundef %16)
  %17 = load ptr, ptr %3, align 8
  %18 = getelementptr inbounds [3 x float], ptr %17, i64 2
  %19 = getelementptr inbounds [3 x float], ptr %18, i64 0, i64 0
  %20 = load ptr, ptr %4, align 8
  %21 = getelementptr inbounds [3 x float], ptr %20, i64 2
  %22 = getelementptr inbounds [3 x float], ptr %21, i64 0, i64 0
  call void @_ZL9copy_rvecPKfPf(ptr noundef %19, ptr noundef %22)
  ret void
}

; Function Attrs: mustprogress uwtable
define linkonce_odr void @_ZN3gmx8ArrayRefIKNS_11BasicVectorIfEEEC2IRNS_12PaddedVectorIS2_NS_9AllocatorIS2_NS_20HostAllocationPolicyEEEEEvEEOT_(ptr noundef nonnull align 8 dereferenceable(16) %0, ptr noundef nonnull align 8 dereferenceable(40) %1) unnamed_addr #0 comdat align 2 {
  %3 = alloca ptr, align 8
  %4 = alloca ptr, align 8
  store ptr %0, ptr %3, align 8
  store ptr %1, ptr %4, align 8
  %5 = load ptr, ptr %3, align 8
  %6 = getelementptr inbounds %"class.gmx::ArrayRef.252", ptr %5, i32 0, i32 0
  %7 = load ptr, ptr %4, align 8
  %8 = call noundef ptr @_ZN3gmx12PaddedVectorINS_11BasicVectorIfEENS_9AllocatorIS2_NS_20HostAllocationPolicyEEEE4dataEv(ptr noundef nonnull align 8 dereferenceable(40) %7) #14
  call void @_ZN3gmx12ArrayRefIterIKNS_11BasicVectorIfEEEC2EPS3_(ptr noundef nonnull align 8 dereferenceable(8) %6, ptr noundef %8) #14
  %9 = getelementptr inbounds %"class.gmx::ArrayRef.252", ptr %5, i32 0, i32 1
  %10 = load ptr, ptr %4, align 8
  %11 = call noundef ptr @_ZN3gmx12PaddedVectorINS_11BasicVectorIfEENS_9AllocatorIS2_NS_20HostAllocationPolicyEEEE4dataEv(ptr noundef nonnull align 8 dereferenceable(40) %10) #14
  %12 = load ptr, ptr %4, align 8
  %13 = call noundef i64 @_ZNK3gmx12PaddedVectorINS_11BasicVectorIfEENS_9AllocatorIS2_NS_20HostAllocationPolicyEEEE4sizeEv(ptr noundef nonnull align 8 dereferenceable(40) %12)
  %14 = getelementptr inbounds %"class.gmx::BasicVector", ptr %11, i64 %13
  call void @_ZN3gmx12ArrayRefIterIKNS_11BasicVectorIfEEEC2EPS3_(ptr noundef nonnull align 8 dereferenceable(8) %9, ptr noundef %14) #14
  ret void
}

; Function Attrs: mustprogress uwtable
define void @_ZN3gmx19StatePropagatorData24readCheckpointToTrxFrameEP10t_trxframeNS_14CheckpointDataILNS_23CheckpointDataOperationE0EEE(ptr noundef %0, ptr %1) #0 align 2 personality ptr @__gxx_personality_v0 {
  %3 = alloca %"class.gmx::CheckpointData.13", align 8
  %4 = alloca ptr, align 8
  %5 = alloca %"class.gmx::StatePropagatorData", align 8
  %6 = alloca ptr, align 8
  %7 = alloca i32, align 4
  %8 = alloca %"class.gmx::ArrayRef.252", align 8
  %9 = alloca %"class.gmx::ArrayRef.252", align 8
  %10 = getelementptr inbounds %"class.gmx::CheckpointData.13", ptr %3, i32 0, i32 0
  store ptr %1, ptr %10, align 8
  store ptr %0, ptr %4, align 8
  call void @_ZN3gmx19StatePropagatorDataC2Ev(ptr noundef nonnull align 8 dereferenceable(632) %5)
  invoke void @_ZN3gmx19StatePropagatorData16doCheckpointDataILNS_23CheckpointDataOperationE0EEEvPNS_14CheckpointDataIXT_EEE(ptr noundef nonnull align 8 dereferenceable(632) %5, ptr noundef %3)
          to label %11 unwind label %56

11:                                               ; preds = %2
  %12 = getelementptr inbounds %"class.gmx::StatePropagatorData", ptr %5, i32 0, i32 0
  %13 = load i32, ptr %12, align 8
  %14 = load ptr, ptr %4, align 8
  %15 = getelementptr inbounds %struct.t_trxframe, ptr %14, i32 0, i32 2
  store i32 %13, ptr %15, align 8
  %16 = load ptr, ptr %4, align 8
  %17 = getelementptr inbounds %struct.t_trxframe, ptr %16, i32 0, i32 15
  store i8 1, ptr %17, align 8
  %18 = getelementptr inbounds %"class.gmx::StatePropagatorData", ptr %5, i32 0, i32 11
  invoke void @_ZN3gmx8ArrayRefIKNS_11BasicVectorIfEEEC2IRNS_12PaddedVectorIS2_NS_9AllocatorIS2_NS_20HostAllocationPolicyEEEEEvEEOT_(ptr noundef nonnull align 8 dereferenceable(16) %8, ptr noundef nonnull align 8 dereferenceable(40) %18)
          to label %19 unwind label %56

19:                                               ; preds = %11
  %20 = getelementptr inbounds %"class.gmx::StatePropagatorData", ptr %5, i32 0, i32 0
  %21 = load i32, ptr %20, align 8
  %22 = sext i32 %21 to i64
  %23 = getelementptr inbounds { ptr, ptr }, ptr %8, i32 0, i32 0
  %24 = load ptr, ptr %23, align 8
  %25 = getelementptr inbounds { ptr, ptr }, ptr %8, i32 0, i32 1
  %26 = load ptr, ptr %25, align 8
  %27 = invoke noundef ptr @_Z13makeRvecArrayN3gmx8ArrayRefIKNS_11BasicVectorIfEEEEl(ptr %24, ptr %26, i64 noundef %22)
          to label %28 unwind label %56

28:                                               ; preds = %19
  %29 = load ptr, ptr %4, align 8
  %30 = getelementptr inbounds %struct.t_trxframe, ptr %29, i32 0, i32 16
  store ptr %27, ptr %30, align 8
  %31 = load ptr, ptr %4, align 8
  %32 = getelementptr inbounds %struct.t_trxframe, ptr %31, i32 0, i32 17
  store i8 1, ptr %32, align 8
  %33 = getelementptr inbounds %"class.gmx::StatePropagatorData", ptr %5, i32 0, i32 13
  invoke void @_ZN3gmx8ArrayRefIKNS_11BasicVectorIfEEEC2IRNS_12PaddedVectorIS2_NS_9AllocatorIS2_NS_20HostAllocationPolicyEEEEEvEEOT_(ptr noundef nonnull align 8 dereferenceable(16) %9, ptr noundef nonnull align 8 dereferenceable(40) %33)
          to label %34 unwind label %56

34:                                               ; preds = %28
  %35 = getelementptr inbounds %"class.gmx::StatePropagatorData", ptr %5, i32 0, i32 0
  %36 = load i32, ptr %35, align 8
  %37 = sext i32 %36 to i64
  %38 = getelementptr inbounds { ptr, ptr }, ptr %9, i32 0, i32 0
  %39 = load ptr, ptr %38, align 8
  %40 = getelementptr inbounds { ptr, ptr }, ptr %9, i32 0, i32 1
  %41 = load ptr, ptr %40, align 8
  %42 = invoke noundef ptr @_Z13makeRvecArrayN3gmx8ArrayRefIKNS_11BasicVectorIfEEEEl(ptr %39, ptr %41, i64 noundef %37)
          to label %43 unwind label %56

43:                                               ; preds = %34
  %44 = load ptr, ptr %4, align 8
  %45 = getelementptr inbounds %struct.t_trxframe, ptr %44, i32 0, i32 18
  store ptr %42, ptr %45, align 8
  %46 = load ptr, ptr %4, align 8
  %47 = getelementptr inbounds %struct.t_trxframe, ptr %46, i32 0, i32 19
  store i8 0, ptr %47, align 8
  %48 = load ptr, ptr %4, align 8
  %49 = getelementptr inbounds %struct.t_trxframe, ptr %48, i32 0, i32 21
  store i8 1, ptr %49, align 8
  %50 = getelementptr inbounds %"class.gmx::StatePropagatorData", ptr %5, i32 0, i32 6
  %51 = getelementptr inbounds [3 x [3 x float]], ptr %50, i64 0, i64 0
  %52 = load ptr, ptr %4, align 8
  %53 = getelementptr inbounds %struct.t_trxframe, ptr %52, i32 0, i32 22
  %54 = getelementptr inbounds [3 x [3 x float]], ptr %53, i64 0, i64 0
  invoke void @_ZL8copy_matPA3_KfPA3_f(ptr noundef %51, ptr noundef %54)
          to label %55 unwind label %56

55:                                               ; preds = %43
  call void @_ZN3gmx19StatePropagatorDataD1Ev(ptr noundef nonnull align 8 dereferenceable(632) %5) #14
  ret void

56:                                               ; preds = %43, %34, %28, %19, %11, %2
  %57 = landingpad { ptr, i32 }
          cleanup
  %58 = extractvalue { ptr, i32 } %57, 0
  store ptr %58, ptr %6, align 8
  %59 = extractvalue { ptr, i32 } %57, 1
  store i32 %59, ptr %7, align 4
  call void @_ZN3gmx19StatePropagatorDataD1Ev(ptr noundef nonnull align 8 dereferenceable(632) %5) #14
  br label %60

60:                                               ; preds = %56
  %61 = load ptr, ptr %6, align 8
  %62 = load i32, ptr %7, align 4
  %63 = insertvalue { ptr, i32 } poison, ptr %61, 0
  %64 = insertvalue { ptr, i32 } %63, i32 %62, 1
  resume { ptr, i32 } %64
}