; Function Attrs: mustprogress uwtable
define void @_ZN3gmx19StatePropagatorData24readCheckpointToTrxFrameEP10t_trxframeNS_14CheckpointDataILNS_23CheckpointDataOperationE0EEE(ptr nocapture noundef writeonly %0, ptr %1) local_unnamed_addr #0 align 2 personality ptr @__gxx_personality_v0 {
  %3 = alloca %"class.gmx::CheckpointData.13", align 8
  %4 = alloca %"class.gmx::StatePropagatorData", align 8
  store ptr %1, ptr %3, align 8
  call void @_ZN3gmx19StatePropagatorDataC2Ev(ptr noundef nonnull align 8 dereferenceable(632) %4)
  invoke void @_ZN3gmx19StatePropagatorData16doCheckpointDataILNS_23CheckpointDataOperationE0EEEvPNS_14CheckpointDataIXT_EEE(ptr noundef nonnull align 8 dereferenceable(632) %4, ptr noundef nonnull %3)
          to label %5 unwind label %43

5:                                                ; preds = %2
  %6 = load i32, ptr %4, align 8
  %7 = getelementptr inbounds i8, ptr %0, i64 8
  store i32 %6, ptr %7, align 8
  %8 = getelementptr inbounds i8, ptr %0, i64 64
  store i8 1, ptr %8, align 8
  %9 = getelementptr inbounds i8, ptr %4, i64 384
  %10 = load ptr, ptr %9, align 8
  %11 = getelementptr inbounds i8, ptr %4, i64 408
  %12 = load ptr, ptr %11, align 8
  %13 = ptrtoint ptr %12 to i64
  %14 = ptrtoint ptr %10 to i64
  %15 = sub i64 %13, %14
  %16 = getelementptr inbounds i8, ptr %10, i64 %15
  %17 = sext i32 %6 to i64
  %18 = invoke noundef ptr @_Z13makeRvecArrayN3gmx8ArrayRefIKNS_11BasicVectorIfEEEEl(ptr %10, ptr %16, i64 noundef %17)
          to label %19 unwind label %43

19:                                               ; preds = %5
  %20 = getelementptr inbounds i8, ptr %0, i64 72
  store ptr %18, ptr %20, align 8
  %21 = getelementptr inbounds i8, ptr %0, i64 80
  store i8 1, ptr %21, align 8
  %22 = getelementptr inbounds i8, ptr %4, i64 464
  %23 = load ptr, ptr %22, align 8
  %24 = getelementptr inbounds i8, ptr %4, i64 488
  %25 = load ptr, ptr %24, align 8
  %26 = ptrtoint ptr %25 to i64
  %27 = ptrtoint ptr %23 to i64
  %28 = sub i64 %26, %27
  %29 = getelementptr inbounds i8, ptr %23, i64 %28
  %30 = load i32, ptr %4, align 8
  %31 = sext i32 %30 to i64
  %32 = invoke noundef ptr @_Z13makeRvecArrayN3gmx8ArrayRefIKNS_11BasicVectorIfEEEEl(ptr %23, ptr %29, i64 noundef %31)
          to label %33 unwind label %43

33:                                               ; preds = %19
  %34 = getelementptr inbounds i8, ptr %0, i64 88
  store ptr %32, ptr %34, align 8
  %35 = getelementptr inbounds i8, ptr %0, i64 96
  store i8 0, ptr %35, align 8
  %36 = getelementptr inbounds i8, ptr %0, i64 112
  store i8 1, ptr %36, align 8
  %37 = getelementptr inbounds i8, ptr %4, i64 272
  %38 = getelementptr inbounds i8, ptr %0, i64 116
  %39 = load <8 x float>, ptr %37, align 8
  store <8 x float> %39, ptr %38, align 4
  %40 = getelementptr inbounds i8, ptr %4, i64 304
  %41 = load float, ptr %40, align 8
  %42 = getelementptr inbounds i8, ptr %0, i64 148
  store float %41, ptr %42, align 4
  call void @_ZN3gmx19StatePropagatorDataD1Ev(ptr noundef nonnull align 8 dereferenceable(632) %4) #17
  ret void

43:                                               ; preds = %19, %5, %2
  %44 = landingpad { ptr, i32 }
          cleanup
  call void @_ZN3gmx19StatePropagatorDataD1Ev(ptr noundef nonnull align 8 dereferenceable(632) %4) #17
  resume { ptr, i32 } %44
}